target datalayout = "e-m:e-p270:32:32-p271:32:32-p272:64:64-i64:64-i128:128-f80:128-n8:16:32:64-S128"
target triple = "x86_64-pc-linux-gnu"

%struct._zval_struct = type { %union._zend_value, %union.anon, %union.anon.2 }
%union._zend_value = type { i64 }
%union.anon = type { i32 }
%union.anon.2 = type { i32 }
%struct._zend_refcounted_h = type { i32, %union.anon.3 }
%union.anon.3 = type { i32 }
%struct._zend_refcounted = type { %struct._zend_refcounted_h }
%struct.anon.0 = type { i8, i8, %union.anon.1 }
%union.anon.1 = type { i16 }

; Function Attrs: alwaysinline nounwind uwtable
define internal zeroext i1 @zend_parse_arg_bool_ex(ptr noundef %0, ptr noundef %1, ptr noundef %2, i1 noundef zeroext %3, i32 noundef %4, i1 noundef zeroext %5) #7 {
  %7 = alloca i1, align 1
  %8 = alloca ptr, align 8
  %9 = alloca ptr, align 8
  %10 = alloca ptr, align 8
  %11 = alloca i8, align 1
  %12 = alloca i32, align 4
  %13 = alloca i8, align 1
  store ptr %0, ptr %8, align 8, !tbaa !15
  store ptr %1, ptr %9, align 8, !tbaa !34
  store ptr %2, ptr %10, align 8, !tbaa !34
  %14 = zext i1 %3 to i8
  store i8 %14, ptr %11, align 1, !tbaa !19
  store i32 %4, ptr %12, align 4, !tbaa !17
  %15 = zext i1 %5 to i8
  store i8 %15, ptr %13, align 1, !tbaa !19
  %16 = load i8, ptr %11, align 1, !tbaa !19, !range !21, !noundef !22
  %17 = trunc i8 %16 to i1
  br i1 %17, label %18, label %20

18:                                               ; preds = %6
  %19 = load ptr, ptr %10, align 8, !tbaa !34
  store i8 0, ptr %19, align 1, !tbaa !19
  br label %20

20:                                               ; preds = %18, %6
  %21 = load ptr, ptr %8, align 8, !tbaa !15
  %22 = call zeroext i8 @zval_get_type(ptr noundef %21)
  %23 = zext i8 %22 to i32
  %24 = icmp eq i32 %23, 3
  %25 = xor i1 %24, true
  %26 = xor i1 %25, true
  %27 = zext i1 %26 to i32
  %28 = sext i32 %27 to i64
  %29 = call i64 @llvm.expect.i64(i64 %28, i64 1)
  %30 = icmp ne i64 %29, 0
  br i1 %30, label %31, label %33

31:                                               ; preds = %20
  %32 = load ptr, ptr %9, align 8, !tbaa !34
  store i8 1, ptr %32, align 1, !tbaa !19
  br label %72

33:                                               ; preds = %20
  %34 = load ptr, ptr %8, align 8, !tbaa !15
  %35 = call zeroext i8 @zval_get_type(ptr noundef %34)
  %36 = zext i8 %35 to i32
  %37 = icmp eq i32 %36, 2
  %38 = xor i1 %37, true
  %39 = xor i1 %38, true
  %40 = zext i1 %39 to i32
  %41 = sext i32 %40 to i64
  %42 = call i64 @llvm.expect.i64(i64 %41, i64 1)
  %43 = icmp ne i64 %42, 0
  br i1 %43, label %44, label %46

44:                                               ; preds = %33
  %45 = load ptr, ptr %9, align 8, !tbaa !34
  store i8 0, ptr %45, align 1, !tbaa !19
  br label %71

46:                                               ; preds = %33
  %47 = load i8, ptr %11, align 1, !tbaa !19, !range !21, !noundef !22
  %48 = trunc i8 %47 to i1
  br i1 %48, label %49, label %57

49:                                               ; preds = %46
  %50 = load ptr, ptr %8, align 8, !tbaa !15
  %51 = call zeroext i8 @zval_get_type(ptr noundef %50)
  %52 = zext i8 %51 to i32
  %53 = icmp eq i32 %52, 1
  br i1 %53, label %54, label %57

54:                                               ; preds = %49
  %55 = load ptr, ptr %10, align 8, !tbaa !34
  store i8 1, ptr %55, align 1, !tbaa !19
  %56 = load ptr, ptr %9, align 8, !tbaa !34
  store i8 0, ptr %56, align 1, !tbaa !19
  br label %70

57:                                               ; preds = %49, %46
  %58 = load i8, ptr %13, align 1, !tbaa !19, !range !21, !noundef !22
  %59 = trunc i8 %58 to i1
  br i1 %59, label %60, label %65

60:                                               ; preds = %57
  %61 = load ptr, ptr %8, align 8, !tbaa !15
  %62 = load ptr, ptr %9, align 8, !tbaa !34
  %63 = load i32, ptr %12, align 4, !tbaa !17
  %64 = call zeroext i1 @zend_flf_parse_arg_bool_slow(ptr noundef %61, ptr noundef %62, i32 noundef %63)
  store i1 %64, ptr %7, align 1
  br label %73

65:                                               ; preds = %57
  %66 = load ptr, ptr %8, align 8, !tbaa !15
  %67 = load ptr, ptr %9, align 8, !tbaa !34
  %68 = load i32, ptr %12, align 4, !tbaa !17
  %69 = call zeroext i1 @zend_parse_arg_bool_slow(ptr noundef %66, ptr noundef %67, i32 noundef %68)
  store i1 %69, ptr %7, align 1
  br label %73

70:                                               ; preds = %54
  br label %71

71:                                               ; preds = %70, %44
  br label %72

72:                                               ; preds = %71, %31
  store i1 true, ptr %7, align 1
  br label %73

73:                                               ; preds = %72, %65, %60
  %74 = load i1, ptr %7, align 1
  ret i1 %74
}

; Function Attrs: alwaysinline nounwind uwtable
define internal zeroext i1 @zend_parse_arg_str_ex(ptr noundef %0, ptr noundef %1, i1 noundef zeroext %2, i32 noundef %3, i1 noundef zeroext %4) #7 {
  %6 = alloca i1, align 1
  %7 = alloca ptr, align 8
  %8 = alloca ptr, align 8
  %9 = alloca i8, align 1
  %10 = alloca i32, align 4
  %11 = alloca i8, align 1
  store ptr %0, ptr %7, align 8, !tbaa !15
  store ptr %1, ptr %8, align 8, !tbaa !29
  %12 = zext i1 %2 to i8
  store i8 %12, ptr %9, align 1, !tbaa !19
  store i32 %3, ptr %10, align 4, !tbaa !17
  %13 = zext i1 %4 to i8
  store i8 %13, ptr %11, align 1, !tbaa !19
  %14 = load ptr, ptr %7, align 8, !tbaa !15
  %15 = call zeroext i8 @zval_get_type(ptr noundef %14)
  %16 = zext i8 %15 to i32
  %17 = icmp eq i32 %16, 6
  %18 = xor i1 %17, true
  %19 = xor i1 %18, true
  %20 = zext i1 %19 to i32
  %21 = sext i32 %20 to i64
  %22 = call i64 @llvm.expect.i64(i64 %21, i64 1)
  %23 = icmp ne i64 %22, 0
  br i1 %23, label %24, label %29

24:                                               ; preds = %5
  %25 = load ptr, ptr %7, align 8, !tbaa !15
  %26 = getelementptr inbounds nuw %struct._zval_struct, ptr %25, i32 0, i32 0
  %27 = load ptr, ptr %26, align 8, !tbaa !12
  %28 = load ptr, ptr %8, align 8, !tbaa !29
  store ptr %27, ptr %28, align 8, !tbaa !23
  br label %53

29:                                               ; preds = %5
  %30 = load i8, ptr %9, align 1, !tbaa !19, !range !21, !noundef !22
  %31 = trunc i8 %30 to i1
  br i1 %31, label %32, label %39

32:                                               ; preds = %29
  %33 = load ptr, ptr %7, align 8, !tbaa !15
  %34 = call zeroext i8 @zval_get_type(ptr noundef %33)
  %35 = zext i8 %34 to i32
  %36 = icmp eq i32 %35, 1
  br i1 %36, label %37, label %39

37:                                               ; preds = %32
  %38 = load ptr, ptr %8, align 8, !tbaa !29
  store ptr null, ptr %38, align 8, !tbaa !23
  br label %52

39:                                               ; preds = %32, %29
  %40 = load i8, ptr %11, align 1, !tbaa !19, !range !21, !noundef !22
  %41 = trunc i8 %40 to i1
  br i1 %41, label %42, label %47

42:                                               ; preds = %39
  %43 = load ptr, ptr %7, align 8, !tbaa !15
  %44 = load ptr, ptr %8, align 8, !tbaa !29
  %45 = load i32, ptr %10, align 4, !tbaa !17
  %46 = call zeroext i1 @zend_flf_parse_arg_str_slow(ptr noundef %43, ptr noundef %44, i32 noundef %45)
  store i1 %46, ptr %6, align 1
  br label %54

47:                                               ; preds = %39
  %48 = load ptr, ptr %7, align 8, !tbaa !15
  %49 = load ptr, ptr %8, align 8, !tbaa !29
  %50 = load i32, ptr %10, align 4, !tbaa !17
  %51 = call zeroext i1 @zend_parse_arg_str_slow(ptr noundef %48, ptr noundef %49, i32 noundef %50)
  store i1 %51, ptr %6, align 1
  br label %54

52:                                               ; preds = %37
  br label %53

53:                                               ; preds = %52, %24
  store i1 true, ptr %6, align 1
  br label %54

54:                                               ; preds = %53, %47, %42
  %55 = load i1, ptr %6, align 1
  ret i1 %55
}

; Function Attrs: alwaysinline nounwind uwtable
define internal i32 @zend_gc_addref(ptr noundef %0) #7 {
  %2 = alloca ptr, align 8
  store ptr %0, ptr %2, align 8, !tbaa !38
  br label %3

3:                                                ; preds = %1
  br label %4

4:                                                ; preds = %3
  %5 = load ptr, ptr %2, align 8, !tbaa !38
  %6 = getelementptr inbounds nuw %struct._zend_refcounted_h, ptr %5, i32 0, i32 0
  %7 = load i32, ptr %6, align 4, !tbaa !40
  %8 = add i32 %7, 1
  store i32 %8, ptr %6, align 4, !tbaa !40
  ret i32 %8
}

; Function Attrs: alwaysinline nounwind uwtable
define internal zeroext i8 @zval_get_type(ptr noundef %0) #7 {
  %2 = alloca ptr, align 8
  store ptr %0, ptr %2, align 8, !tbaa !15
  %3 = load ptr, ptr %2, align 8, !tbaa !15
  %4 = getelementptr inbounds nuw %struct._zval_struct, ptr %3, i32 0, i32 1
  %5 = getelementptr inbounds nuw %struct.anon.0, ptr %4, i32 0, i32 0
  %6 = load i8, ptr %5, align 8, !tbaa !12
  ret i8 %6
}

; Function Attrs: nounwind uwtable
define hidden void @zflf_strstr_3(ptr noundef %0, ptr noundef %1, ptr noundef %2, ptr noundef %3) #0 {
  %5 = alloca ptr, align 8
  %6 = alloca ptr, align 8
  %7 = alloca ptr, align 8
  %8 = alloca ptr, align 8
  %9 = alloca %struct._zval_struct, align 8
  %10 = alloca %struct._zval_struct, align 8
  %11 = alloca ptr, align 8
  %12 = alloca ptr, align 8
  %13 = alloca i8, align 1
  %14 = alloca ptr, align 8
  %15 = alloca ptr, align 8
  %16 = alloca ptr, align 8
  %17 = alloca i32, align 4
  %18 = alloca ptr, align 8
  %19 = alloca ptr, align 8
  %20 = alloca ptr, align 8
  %21 = alloca i32, align 4
  store ptr %0, ptr %5, align 8, !tbaa !15
  store ptr %1, ptr %6, align 8, !tbaa !15
  store ptr %2, ptr %7, align 8, !tbaa !15
  store ptr %3, ptr %8, align 8, !tbaa !15
  call void @llvm.lifetime.start.p0(i64 16, ptr %9) #22
  call void @llvm.lifetime.start.p0(i64 16, ptr %10) #22
  call void @llvm.lifetime.start.p0(i64 8, ptr %11) #22
  call void @llvm.lifetime.start.p0(i64 8, ptr %12) #22
  call void @llvm.lifetime.start.p0(i64 1, ptr %13) #22
  %22 = load ptr, ptr %6, align 8, !tbaa !15
  %23 = call zeroext i8 @zval_get_type(ptr noundef %22)
  %24 = zext i8 %23 to i32
  %25 = icmp eq i32 %24, 6
  br i1 %25, label %26, label %30

26:                                               ; preds = %4
  %27 = load ptr, ptr %6, align 8, !tbaa !15
  %28 = getelementptr inbounds nuw %struct._zval_struct, ptr %27, i32 0, i32 0
  %29 = load ptr, ptr %28, align 8, !tbaa !12
  store ptr %29, ptr %11, align 8, !tbaa !23
  br label %63

30:                                               ; preds = %4
  br label %31

31:                                               ; preds = %30
  call void @llvm.lifetime.start.p0(i64 8, ptr %14) #22
  store ptr %9, ptr %14, align 8, !tbaa !15
  call void @llvm.lifetime.start.p0(i64 8, ptr %15) #22
  %32 = load ptr, ptr %6, align 8, !tbaa !15
  store ptr %32, ptr %15, align 8, !tbaa !15
  call void @llvm.lifetime.start.p0(i64 8, ptr %16) #22
  %33 = load ptr, ptr %15, align 8, !tbaa !15
  %34 = getelementptr inbounds nuw %struct._zval_struct, ptr %33, i32 0, i32 0
  %35 = load ptr, ptr %34, align 8, !tbaa !12
  store ptr %35, ptr %16, align 8, !tbaa !36
  call void @llvm.lifetime.start.p0(i64 4, ptr %17) #22
  %36 = load ptr, ptr %15, align 8, !tbaa !15
  %37 = getelementptr inbounds nuw %struct._zval_struct, ptr %36, i32 0, i32 1
  %38 = load i32, ptr %37, align 8, !tbaa !12
  store i32 %38, ptr %17, align 4, !tbaa !17
  br label %39

39:                                               ; preds = %31
  %40 = load ptr, ptr %16, align 8, !tbaa !36
  %41 = load ptr, ptr %14, align 8, !tbaa !15
  %42 = getelementptr inbounds nuw %struct._zval_struct, ptr %41, i32 0, i32 0
  store ptr %40, ptr %42, align 8, !tbaa !12
  %43 = load i32, ptr %17, align 4, !tbaa !17
  %44 = load ptr, ptr %14, align 8, !tbaa !15
  %45 = getelementptr inbounds nuw %struct._zval_struct, ptr %44, i32 0, i32 1
  store i32 %43, ptr %45, align 8, !tbaa !12
  br label %46

46:                                               ; preds = %39
  br label %47

47:                                               ; preds = %46
  %48 = load i32, ptr %17, align 4, !tbaa !17
  %49 = and i32 %48, 65280
  %50 = icmp ne i32 %49, 0
  br i1 %50, label %51, label %55

51:                                               ; preds = %47
  %52 = load ptr, ptr %16, align 8, !tbaa !36
  %53 = getelementptr inbounds nuw %struct._zend_refcounted, ptr %52, i32 0, i32 0
  %54 = call i32 @zend_gc_addref(ptr noundef %53)
  br label %55

55:                                               ; preds = %51, %47
  call void @llvm.lifetime.end.p0(i64 4, ptr %17) #22
  call void @llvm.lifetime.end.p0(i64 8, ptr %16) #22
  call void @llvm.lifetime.end.p0(i64 8, ptr %15) #22
  call void @llvm.lifetime.end.p0(i64 8, ptr %14) #22
  br label %56

56:                                               ; preds = %55
  br label %57

57:                                               ; preds = %56
  store ptr %9, ptr %6, align 8, !tbaa !15
  %58 = load ptr, ptr %6, align 8, !tbaa !15
  %59 = call zeroext i1 @zend_parse_arg_str_ex(ptr noundef %58, ptr noundef %11, i1 noundef zeroext false, i32 noundef 1, i1 noundef zeroext true)
  br i1 %59, label %62, label %60

60:                                               ; preds = %57
  %61 = load ptr, ptr %6, align 8, !tbaa !15
  call void @zend_wrong_parameter_type_error(i32 noundef 1, i32 noundef 4, ptr noundef %61)
  br label %116

62:                                               ; preds = %57
  br label %63

63:                                               ; preds = %62, %26
  %64 = load ptr, ptr %7, align 8, !tbaa !15
  %65 = call zeroext i8 @zval_get_type(ptr noundef %64)
  %66 = zext i8 %65 to i32
  %67 = icmp eq i32 %66, 6
  br i1 %67, label %68, label %72

68:                                               ; preds = %63
  %69 = load ptr, ptr %7, align 8, !tbaa !15
  %70 = getelementptr inbounds nuw %struct._zval_struct, ptr %69, i32 0, i32 0
  %71 = load ptr, ptr %70, align 8, !tbaa !12
  store ptr %71, ptr %12, align 8, !tbaa !23
  br label %105

72:                                               ; preds = %63
  br label %73

73:                                               ; preds = %72
  call void @llvm.lifetime.start.p0(i64 8, ptr %18) #22
  store ptr %10, ptr %18, align 8, !tbaa !15
  call void @llvm.lifetime.start.p0(i64 8, ptr %19) #22
  %74 = load ptr, ptr %7, align 8, !tbaa !15
  store ptr %74, ptr %19, align 8, !tbaa !15
  call void @llvm.lifetime.start.p0(i64 8, ptr %20) #22
  %75 = load ptr, ptr %19, align 8, !tbaa !15
  %76 = getelementptr inbounds nuw %struct._zval_struct, ptr %75, i32 0, i32 0
  %77 = load ptr, ptr %76, align 8, !tbaa !12
  store ptr %77, ptr %20, align 8, !tbaa !36
  call void @llvm.lifetime.start.p0(i64 4, ptr %21) #22
  %78 = load ptr, ptr %19, align 8, !tbaa !15
  %79 = getelementptr inbounds nuw %struct._zval_struct, ptr %78, i32 0, i32 1
  %80 = load i32, ptr %79, align 8, !tbaa !12
  store i32 %80, ptr %21, align 4, !tbaa !17
  br label %81

81:                                               ; preds = %73
  %82 = load ptr, ptr %20, align 8, !tbaa !36
  %83 = load ptr, ptr %18, align 8, !tbaa !15
  %84 = getelementptr inbounds nuw %struct._zval_struct, ptr %83, i32 0, i32 0
  store ptr %82, ptr %84, align 8, !tbaa !12
  %85 = load i32, ptr %21, align 4, !tbaa !17
  %86 = load ptr, ptr %18, align 8, !tbaa !15
  %87 = getelementptr inbounds nuw %struct._zval_struct, ptr %86, i32 0, i32 1
  store i32 %85, ptr %87, align 8, !tbaa !12
  br label %88

88:                                               ; preds = %81
  br label %89

89:                                               ; preds = %88
  %90 = load i32, ptr %21, align 4, !tbaa !17
  %91 = and i32 %90, 65280
  %92 = icmp ne i32 %91, 0
  br i1 %92, label %93, label %97

93:                                               ; preds = %89
  %94 = load ptr, ptr %20, align 8, !tbaa !36
  %95 = getelementptr inbounds nuw %struct._zend_refcounted, ptr %94, i32 0, i32 0
  %96 = call i32 @zend_gc_addref(ptr noundef %95)
  br label %97

97:                                               ; preds = %93, %89
  call void @llvm.lifetime.end.p0(i64 4, ptr %21) #22
  call void @llvm.lifetime.end.p0(i64 8, ptr %20) #22
  call void @llvm.lifetime.end.p0(i64 8, ptr %19) #22
  call void @llvm.lifetime.end.p0(i64 8, ptr %18) #22
  br label %98

98:                                               ; preds = %97
  br label %99

99:                                               ; preds = %98
  store ptr %10, ptr %7, align 8, !tbaa !15
  %100 = load ptr, ptr %7, align 8, !tbaa !15
  %101 = call zeroext i1 @zend_parse_arg_str_ex(ptr noundef %100, ptr noundef %12, i1 noundef zeroext false, i32 noundef 2, i1 noundef zeroext true)
  br i1 %101, label %104, label %102

102:                                              ; preds = %99
  %103 = load ptr, ptr %7, align 8, !tbaa !15
  call void @zend_wrong_parameter_type_error(i32 noundef 2, i32 noundef 4, ptr noundef %103)
  br label %116

104:                                              ; preds = %99
  br label %105

105:                                              ; preds = %104, %68
  %106 = load ptr, ptr %8, align 8, !tbaa !15
  %107 = call zeroext i1 @zend_parse_arg_bool_ex(ptr noundef %106, ptr noundef %13, ptr noundef null, i1 noundef zeroext false, i32 noundef 3, i1 noundef zeroext true)
  br i1 %107, label %110, label %108

108:                                              ; preds = %105
  %109 = load ptr, ptr %8, align 8, !tbaa !15
  call void @zend_wrong_parameter_type_error(i32 noundef 3, i32 noundef 2, ptr noundef %109)
  br label %116

110:                                              ; preds = %105
  %111 = load ptr, ptr %5, align 8, !tbaa !15
  %112 = load ptr, ptr %11, align 8, !tbaa !23
  %113 = load ptr, ptr %12, align 8, !tbaa !23
  %114 = load i8, ptr %13, align 1, !tbaa !19, !range !21, !noundef !22
  %115 = trunc i8 %114 to i1
  call void @_zend_strstr(ptr noundef %111, ptr noundef %112, ptr noundef %113, i1 noundef zeroext %115)
  br label %116

116:                                              ; preds = %110, %108, %102, %60
  %117 = load ptr, ptr %6, align 8, !tbaa !15
  %118 = icmp eq ptr %117, %9
  %119 = xor i1 %118, true
  %120 = xor i1 %119, true
  %121 = zext i1 %120 to i32
  %122 = sext i32 %121 to i64
  %123 = call i64 @llvm.expect.i64(i64 %122, i64 0)
  %124 = icmp ne i64 %123, 0
  br i1 %124, label %125, label %127

125:                                              ; preds = %116
  %126 = load ptr, ptr %6, align 8, !tbaa !15
  call void @zval_ptr_dtor(ptr noundef %126)
  br label %127

127:                                              ; preds = %125, %116
  %128 = load ptr, ptr %7, align 8, !tbaa !15
  %129 = icmp eq ptr %128, %10
  %130 = xor i1 %129, true
  %131 = xor i1 %130, true
  %132 = zext i1 %131 to i32
  %133 = sext i32 %132 to i64
  %134 = call i64 @llvm.expect.i64(i64 %133, i64 0)
  %135 = icmp ne i64 %134, 0
  br i1 %135, label %136, label %138

136:                                              ; preds = %127
  %137 = load ptr, ptr %7, align 8, !tbaa !15
  call void @zval_ptr_dtor(ptr noundef %137)
  br label %138

138:                                              ; preds = %136, %127
  call void @llvm.lifetime.end.p0(i64 1, ptr %13) #22
  call void @llvm.lifetime.end.p0(i64 8, ptr %12) #22
  call void @llvm.lifetime.end.p0(i64 8, ptr %11) #22
  call void @llvm.lifetime.end.p0(i64 16, ptr %10) #22
  call void @llvm.lifetime.end.p0(i64 16, ptr %9) #22
  ret void
}